(dp1
S'rd'
p2
(lp3
V1fichier.com
p4
aValterupload.com
p5
aVcjoint.net
p6
aVdesfichiers.com
p7
aVdfichiers.com
p8
aVmegadl.fr
p9
aVmesfichiers.org
p10
aVpiecejointe.net
p11
aVpjointe.com
p12
aVtenvoi.com
p13
aVdl4free.com
p14
aV24uploading.com
p15
aV2shared.com
p16
aV4shared.com
p17
aValfafile.net
p18
aVallmyvideos.net
p19
aVanafile.com
p20
aVcanalplus.fr
p21
aVcatshare.net
p22
aVcbs.com
p23
aVclicknupload.me
p24
aVclicknupload.com
p25
aVcloudtime.to
p26
aVdivxstage.eu
p27
aVdivxstage.to
p28
aVdailymotion.com
p29
aVdatafile.com
p30
aVdatafilehost.com
p31
aVdatei.to
p32
aVdepfile.com
p33
aVi-filez.com
p34
aVdl.free.fr
p35
aVeasybytez.com
p36
aVexashare.com
p37
aVextmatrix.com
p38
aVfaststore.org
p39
aVfilecloud.io
p40
aVfilefactory.com
p41
aVfileflyer.com
p42
aVfileover.net
p43
aVfilerio.com
p44
aVfilerio.in
p45
aVfilesflash.com
p46
aVfilesflash.net
p47
aVfilesmonster.com
p48
aVgigapeta.com
p49
aVgigasize.com
p50
aVgboxes.com
p51
aVgulfup.com
p52
aVhugefiles.net
p53
aVhulkshare.com
p54
aVkeep2share.cc
p55
aVk2s.cc
p56
aVkeep2s.cc
p57
aVk2share.cc
p58
aVkingfiles.net
p59
aVletitbit.net
p60
aVload.to
p61
aVluckyshare.net
p62
aVmediafire.com
p63
aVmega.co.nz
p64
aVmega.nz
p65
aVmegashares.com
p66
aVmightyupload.com
p67
aVmovshare.net
p68
aVwholecloud.net
p69
aVnitroflare.com
p70
aVnovamov.com
p71
aVauroravid.to
p72
aVnowdownload.eu
p73
aVnowdownload.ch
p74
aVnowdownload.sx
p75
aVnowdownload.ag
p76
aVnowdownload.at
p77
aVnowdownload.ec
p78
aVnowdownload.li
p79
aVnowdownload.to
p80
aVnowvideo.eu
p81
aVnowvideo.ch
p82
aVnowvideo.sx
p83
aVnowvideo.ag
p84
aVnowvideo.at
p85
aVnowvideo.li
p86
aVoboom.com
p87
aVopenload.co
p88
aVopenload.io
p89
aVozofiles.com
p90
aVpurevid.com
p91
aVsky.fm
p92
aVradiotunes.com
p93
aVrapidgator.net
p94
aVrg.to
p95
aVrarefile.net
p96
aVredbunker.net
p97
aVredtube.com
p98
aVrockfile.eu
p99
aVrutube.ru
p100
aVsalefiles.com
p101
aVscribd.com
p102
aVsecureupload.eu
p103
aVsendspace.com
p104
aVshare-online.biz
p105
aVshareflare.net
p106
aVsoundcloud.com
p107
aVspeedyshare.com
p108
aVthevideo.me
p109
aVturbobit.net
p110
aVtusfiles.net
p111
aVulozto.net
p112
aVuloz.to
p113
aVulozto.sk
p114
aVunibytes.com
p115
aVuplea.com
p116
aVupload.af
p117
aVuploadable.ch
p118
aVuploadc.com
p119
aVuploadc.ch
p120
aVuploaded.net
p121
aVuploaded.to
p122
aVul.to
p123
aVuploading.com
p124
aVuploadrocket.net
p125
aVuploadx.org
p126
aVupstore.net
p127
aVuptobox.com
p128
aVuptostream.com
p129
aVuserporn.com
p130
aVuserscloud.com
p131
aVveevr.com
p132
aVvideoweed.es
p133
aVvimeo.com
p134
aVvip-file.com
p135
aVvipfile.in
p136
aVwat.tv
p137
aVyouporn.com
p138
aVyoutube.com
p139
aVyouwatch.org
p140
aVyunfile.com
p141
aVfilemarkets.com
p142
aV5xpan.com
p143
aVzippyshare.com
p144
asS'rp'
p145
(lp146
V1fichier.com
p147
aV24uploading.com
p148
aVakafile.com
p149
aVanafile.com
p150
aVcloudtime.to
p151
aVdatafile.com
p152
aVdepfile.com
p153
aVdivxstage.to
p154
aVezfile.ch
p155
aVfilecloud.io
p156
aVfiledais.com
p157
aVfilepup.net
p158
aVfilerio.in
p159
aVfilesabc.com
p160
aVfilesflash.com
p161
aVfilespace.com
p162
aVfiletut.com
p163
aVfiredrop.com
p164
aVhugefiles.net
p165
aVifile.it
p166
aVinclouddrive.com
p167
aVjunocloud.me
p168
aVletitbit.net
p169
aVlivefile.co.uk
p170
aVmegashares.com
p171
aVmovshare.net
p172
aVnitroflare.com
p173
aVnornar.com
p174
aVnovamov.com
p175
aVnowvideo.sx
p176
aVoboom.com
p177
aVprefiles.com
p178
aVputlocker.ws
p179
aVrapidfileshare.net
p180
aVrapidgator.net
p181
aVrapidrar.com
p182
aVrg.to
p183
aVsafelinking.net
p184
aVsalefiles.com
p185
aVsecureupload.eu
p186
aVshare-online.biz
p187
aVshareflare.net
p188
aVspeedy.sh
p189
aVspeedyshare.com
p190
aVturbobit.net
p191
aVtusfiles.net
p192
aVul.to
p193
aVunlimitzone.com
p194
aVuploadable.ch
p195
aVuploaded.net
p196
aVuploaded.to
p197
aVuploading.com
p198
aVuploadrocket.net
p199
aVuptobox.com
p200
aVvideoweed.es
p201
asS'ad'
p202
(lp203
V180upload.com
p204
aV24uploading.com
p205
aV1fichier.com
p206
aV1st-files.com
p207
aV2shared.com
p208
aV4shared.com
p209
aValbafile.com
p210
aVasfile.com
p211
aVbitshare.com
p212
aVcrocko.com
p213
aVdatafile.com
p214
aVdatei.to
p215
aVdepfile.com
p216
aVdizzcloud.com
p217
aVeasybytez.com
p218
aVexoshare.com
p219
aVextmatrix.com
p220
aVfaststore.org
p221
aVfile4safe.com
p222
aVfilebox.com
p223
aVfilecloud.org
p224
aVfileden.com
p225
aVfileflyer.com
p226
aVfilemade.com
p227
aVfilemonkey.com
p228
aVfileover.net
p229
aVfilepost.com
p230
aVfilerio.in
p231
aVfilesabc.com
p232
aVfilesave.me
p233
aVfilesend.com
p234
aVfilesflash.com
p235
aVfilesflash.net
p236
aVfilesmonster.net
p237
aVfileswap.com
p238
aVfiredrive.com
p239
aVfreakshare.com
p240
aVfreakshare.net
p241
aVfree.fr
p242
aVgigapeta.com
p243
aVgigasize.com
p244
aVgulfup.com
p245
aVhostingbulk.com
p246
aVhulkshare.com
p247
aVjumbofiles.com
p248
aVkingfiles.net
p249
aVletitbit.net
p250
aVload.to
p251
aVluckyshare.net
p252
aVmediafire.com
p253
aVmega.co.nz
p254
aVmegashares.com
p255
aVmixturevideo.com
p256
aVmuchshare.net
p257
aVnetload.in
p258
aVnowdownload.eu
p259
aVprefiles.com
p260
aVpurevid.com
p261
aVrapidgator.net
p262
aVrg.to
p263
aVrapidshare.com
p264
aVscribd.com
p265
aVsendspace.com
p266
aVsharebeast.com
p267
aVsharebees.com
p268
aVshareflare.net
p269
aVshare-online.biz
p270
aVshare-rapid.com
p271
aVsockshare.com
p272
aVsoundcloud.com
p273
aVspeedyshare.com
p274
aVturbobit.net
p275
aVuload.to
p276
aVunibytes.com
p277
aVuplea.com
p278
aVuploadbox.com
p279
aVuploadc.com
p280
aVuploaded.to
p281
aVuploaded.net
p282
aVul.to
p283
aVuploadable.ch
p284
aVuploadhero.co
p285
aVuploading.com
p286
aVuploadking.com
p287
aVuploadspace.pl
p288
aVuptobox.com
p289
aVuserporn.com
p290
aVvidbux.com
p291
aVvidxden.com
p292
aVvip-file.com
p293
aVyoutube.com
p294
aVyunfile.com
p295
aVzippyshare.com
p296
aVzshare.net
p297
as.